target datalayout = "e-m:e-p270:32:32-p271:32:32-p272:64:64-i64:64-i128:128-f80:128-n8:16:32:64-S128"
target triple = "x86_64-pc-linux-gnu"

%struct.Agobj_s = type { %struct.Agtag_s, ptr }
%struct.Agtag_s = type { i32, i64 }
%struct.Agraphinfo_t = type { %struct.Agrec_s, ptr, ptr, %struct.boxf, [4 x %struct.pointf_s], i8, i8, i8, i8, i32, double, double, i16, ptr, ptr, ptr, ptr, i32, ptr, ptr, ptr, ptr, i16, i16, i32, ptr, ptr, ptr, ptr, ptr, i32, ptr, ptr, %struct.nlist_t, ptr, ptr, i32, i32, i8, i8, i32, i32, i32, ptr, ptr, ptr, ptr, i8, i8, i8, i8, i8 }
%struct.Agrec_s = type { ptr, ptr }
%struct.boxf = type { %struct.pointf_s, %struct.pointf_s }
%struct.pointf_s = type { double, double }
%struct.nlist_t = type { ptr, i64 }
%struct.Agnodeinfo_t = type { %struct.Agrec_s, ptr, ptr, %struct.pointf_s, double, double, %struct.boxf, double, double, double, double, double, ptr, ptr, ptr, i8, i8, i8, i8, i32, i32, i32, ptr, double, i8, i8, ptr, ptr, i8, i64, i8, i8, i8, ptr, ptr, %struct.elist, %struct.elist, %struct.elist, %struct.elist, %struct.elist, ptr, i32, ptr, i32, i32, double, %struct.elist, %struct.elist, %struct.elist, %struct.elist, ptr, i32, i32, i32, [1 x double] }
%struct.elist = type { ptr, i64 }
%struct.Agedge_s = type { %struct.Agobj_s, %struct.dtlink_s_, %struct.dtlink_s_, ptr }
%struct.dtlink_s_ = type { ptr, %union.anon }
%union.anon = type { ptr }
%struct.Agnode_s = type { %struct.Agobj_s, ptr, %struct.Agsubnode_s }
%struct.Agsubnode_s = type { %struct.dtlink_s_, %struct.dtlink_s_, ptr, ptr, ptr, ptr, ptr }

; Function Attrs: nounwind uwtable
define internal void @free_virtual_edge_list(ptr noundef %0) #0 {
  %2 = alloca ptr, align 8
  %3 = alloca ptr, align 8
  %4 = alloca i64, align 8
  %5 = alloca i64, align 8
  store ptr %0, ptr %2, align 8, !tbaa !8
  call void @llvm.lifetime.start.p0(i64 8, ptr %3) #12
  call void @llvm.lifetime.start.p0(i64 8, ptr %4) #12
  %6 = load ptr, ptr %2, align 8, !tbaa !8
  %7 = getelementptr inbounds nuw %struct.Agobj_s, ptr %6, i32 0, i32 1
  %8 = load ptr, ptr %7, align 8, !tbaa !16
  %9 = getelementptr inbounds nuw %struct.Agnodeinfo_t, ptr %8, i32 0, i32 35
  %10 = getelementptr inbounds nuw %struct.elist, ptr %9, i32 0, i32 1
  %11 = load i64, ptr %10, align 8, !tbaa !40
  %12 = sub i64 %11, 1
  store i64 %12, ptr %4, align 8, !tbaa !114
  br label %13

13:                                               ; preds = %33, %1
  %14 = load i64, ptr %4, align 8, !tbaa !114
  %15 = icmp ne i64 %14, -1
  br i1 %15, label %17, label %16

16:                                               ; preds = %13
  call void @llvm.lifetime.end.p0(i64 8, ptr %4) #12
  br label %36

17:                                               ; preds = %13
  %18 = load ptr, ptr %2, align 8, !tbaa !8
  %19 = getelementptr inbounds nuw %struct.Agobj_s, ptr %18, i32 0, i32 1
  %20 = load ptr, ptr %19, align 8, !tbaa !16
  %21 = getelementptr inbounds nuw %struct.Agnodeinfo_t, ptr %20, i32 0, i32 35
  %22 = getelementptr inbounds nuw %struct.elist, ptr %21, i32 0, i32 0
  %23 = load ptr, ptr %22, align 8, !tbaa !46
  %24 = load i64, ptr %4, align 8, !tbaa !114
  %25 = getelementptr inbounds nuw ptr, ptr %23, i64 %24
  %26 = load ptr, ptr %25, align 8, !tbaa !12
  store ptr %26, ptr %3, align 8, !tbaa !12
  %27 = load ptr, ptr %3, align 8, !tbaa !12
  call void @delete_fast_edge(ptr noundef %27)
  %28 = load ptr, ptr %3, align 8, !tbaa !12
  %29 = getelementptr inbounds nuw %struct.Agedge_s, ptr %28, i32 0, i32 0
  %30 = getelementptr inbounds nuw %struct.Agobj_s, ptr %29, i32 0, i32 1
  %31 = load ptr, ptr %30, align 8, !tbaa !124
  call void @free(ptr noundef %31) #12
  %32 = load ptr, ptr %3, align 8, !tbaa !12
  call void @free(ptr noundef %32) #12
  br label %33

33:                                               ; preds = %17
  %34 = load i64, ptr %4, align 8, !tbaa !114
  %35 = add i64 %34, -1
  store i64 %35, ptr %4, align 8, !tbaa !114
  br label %13, !llvm.loop !125

36:                                               ; preds = %16
  call void @llvm.lifetime.start.p0(i64 8, ptr %5) #12
  %37 = load ptr, ptr %2, align 8, !tbaa !8
  %38 = getelementptr inbounds nuw %struct.Agobj_s, ptr %37, i32 0, i32 1
  %39 = load ptr, ptr %38, align 8, !tbaa !16
  %40 = getelementptr inbounds nuw %struct.Agnodeinfo_t, ptr %39, i32 0, i32 36
  %41 = getelementptr inbounds nuw %struct.elist, ptr %40, i32 0, i32 1
  %42 = load i64, ptr %41, align 8, !tbaa !47
  %43 = sub i64 %42, 1
  store i64 %43, ptr %5, align 8, !tbaa !114
  br label %44

44:                                               ; preds = %64, %36
  %45 = load i64, ptr %5, align 8, !tbaa !114
  %46 = icmp ne i64 %45, -1
  br i1 %46, label %48, label %47

47:                                               ; preds = %44
  call void @llvm.lifetime.end.p0(i64 8, ptr %5) #12
  br label %67

48:                                               ; preds = %44
  %49 = load ptr, ptr %2, align 8, !tbaa !8
  %50 = getelementptr inbounds nuw %struct.Agobj_s, ptr %49, i32 0, i32 1
  %51 = load ptr, ptr %50, align 8, !tbaa !16
  %52 = getelementptr inbounds nuw %struct.Agnodeinfo_t, ptr %51, i32 0, i32 36
  %53 = getelementptr inbounds nuw %struct.elist, ptr %52, i32 0, i32 0
  %54 = load ptr, ptr %53, align 8, !tbaa !48
  %55 = load i64, ptr %5, align 8, !tbaa !114
  %56 = getelementptr inbounds nuw ptr, ptr %54, i64 %55
  %57 = load ptr, ptr %56, align 8, !tbaa !12
  store ptr %57, ptr %3, align 8, !tbaa !12
  %58 = load ptr, ptr %3, align 8, !tbaa !12
  call void @delete_fast_edge(ptr noundef %58)
  %59 = load ptr, ptr %3, align 8, !tbaa !12
  %60 = getelementptr inbounds nuw %struct.Agedge_s, ptr %59, i32 0, i32 0
  %61 = getelementptr inbounds nuw %struct.Agobj_s, ptr %60, i32 0, i32 1
  %62 = load ptr, ptr %61, align 8, !tbaa !124
  call void @free(ptr noundef %62) #12
  %63 = load ptr, ptr %3, align 8, !tbaa !12
  call void @free(ptr noundef %63) #12
  br label %64

64:                                               ; preds = %48
  %65 = load i64, ptr %5, align 8, !tbaa !114
  %66 = add i64 %65, -1
  store i64 %66, ptr %5, align 8, !tbaa !114
  br label %44, !llvm.loop !126

67:                                               ; preds = %47
  call void @llvm.lifetime.end.p0(i64 8, ptr %3) #12
  ret void
}

; Function Attrs: nounwind uwtable
define internal void @free_virtual_node_list(ptr noundef %0) #0 {
  %2 = alloca ptr, align 8
  %3 = alloca ptr, align 8
  store ptr %0, ptr %2, align 8, !tbaa !8
  call void @llvm.lifetime.start.p0(i64 8, ptr %3) #12
  br label %4

4:                                                ; preds = %39, %1
  %5 = load ptr, ptr %2, align 8, !tbaa !8
  %6 = icmp ne ptr %5, null
  br i1 %6, label %7, label %41

7:                                                ; preds = %4
  %8 = load ptr, ptr %2, align 8, !tbaa !8
  %9 = getelementptr inbounds nuw %struct.Agobj_s, ptr %8, i32 0, i32 1
  %10 = load ptr, ptr %9, align 8, !tbaa !16
  %11 = getelementptr inbounds nuw %struct.Agnodeinfo_t, ptr %10, i32 0, i32 33
  %12 = load ptr, ptr %11, align 8, !tbaa !78
  store ptr %12, ptr %3, align 8, !tbaa !8
  %13 = load ptr, ptr %2, align 8, !tbaa !8
  call void @free_virtual_edge_list(ptr noundef %13)
  %14 = load ptr, ptr %2, align 8, !tbaa !8
  %15 = getelementptr inbounds nuw %struct.Agobj_s, ptr %14, i32 0, i32 1
  %16 = load ptr, ptr %15, align 8, !tbaa !16
  %17 = getelementptr inbounds nuw %struct.Agnodeinfo_t, ptr %16, i32 0, i32 28
  %18 = load i8, ptr %17, align 8, !tbaa !79
  %19 = sext i8 %18 to i32
  %20 = icmp eq i32 %19, 1
  br i1 %20, label %21, label %39

21:                                               ; preds = %7
  %22 = load ptr, ptr %2, align 8, !tbaa !8
  %23 = getelementptr inbounds nuw %struct.Agobj_s, ptr %22, i32 0, i32 1
  %24 = load ptr, ptr %23, align 8, !tbaa !16
  %25 = getelementptr inbounds nuw %struct.Agnodeinfo_t, ptr %24, i32 0, i32 36
  %26 = getelementptr inbounds nuw %struct.elist, ptr %25, i32 0, i32 0
  %27 = load ptr, ptr %26, align 8, !tbaa !48
  call void @free(ptr noundef %27) #12
  %28 = load ptr, ptr %2, align 8, !tbaa !8
  %29 = getelementptr inbounds nuw %struct.Agobj_s, ptr %28, i32 0, i32 1
  %30 = load ptr, ptr %29, align 8, !tbaa !16
  %31 = getelementptr inbounds nuw %struct.Agnodeinfo_t, ptr %30, i32 0, i32 35
  %32 = getelementptr inbounds nuw %struct.elist, ptr %31, i32 0, i32 0
  %33 = load ptr, ptr %32, align 8, !tbaa !46
  call void @free(ptr noundef %33) #12
  %34 = load ptr, ptr %2, align 8, !tbaa !8
  %35 = getelementptr inbounds nuw %struct.Agnode_s, ptr %34, i32 0, i32 0
  %36 = getelementptr inbounds nuw %struct.Agobj_s, ptr %35, i32 0, i32 1
  %37 = load ptr, ptr %36, align 8, !tbaa !80
  call void @free(ptr noundef %37) #12
  %38 = load ptr, ptr %2, align 8, !tbaa !8
  call void @free(ptr noundef %38) #12
  br label %39

39:                                               ; preds = %21, %7
  %40 = load ptr, ptr %3, align 8, !tbaa !8
  store ptr %40, ptr %2, align 8, !tbaa !8
  br label %4, !llvm.loop !83

41:                                               ; preds = %4
  call void @llvm.lifetime.end.p0(i64 8, ptr %3) #12
  ret void
}

; Function Attrs: nounwind uwtable
define void @dot_cleanup(ptr noundef %0) #0 {
  %2 = alloca ptr, align 8
  %3 = alloca ptr, align 8
  %4 = alloca ptr, align 8
  store ptr %0, ptr %2, align 8, !tbaa !3
  call void @llvm.lifetime.start.p0(i64 8, ptr %3) #12
  call void @llvm.lifetime.start.p0(i64 8, ptr %4) #12
  %5 = load ptr, ptr %2, align 8, !tbaa !3
  %6 = getelementptr inbounds nuw %struct.Agobj_s, ptr %5, i32 0, i32 1
  %7 = load ptr, ptr %6, align 8, !tbaa !16
  %8 = getelementptr inbounds nuw %struct.Agraphinfo_t, ptr %7, i32 0, i32 27
  %9 = load ptr, ptr %8, align 8, !tbaa !75
  call void @free_virtual_node_list(ptr noundef %9)
  %10 = load ptr, ptr %2, align 8, !tbaa !3
  %11 = call ptr @agfstnode(ptr noundef %10)
  store ptr %11, ptr %3, align 8, !tbaa !8
  br label %12

12:                                               ; preds = %30, %1
  %13 = load ptr, ptr %3, align 8, !tbaa !8
  %14 = icmp ne ptr %13, null
  br i1 %14, label %15, label %34

15:                                               ; preds = %12
  %16 = load ptr, ptr %2, align 8, !tbaa !3
  %17 = load ptr, ptr %3, align 8, !tbaa !8
  %18 = call ptr @agfstout(ptr noundef %16, ptr noundef %17)
  store ptr %18, ptr %4, align 8, !tbaa !12
  br label %19

19:                                               ; preds = %24, %15
  %20 = load ptr, ptr %4, align 8, !tbaa !12
  %21 = icmp ne ptr %20, null
  br i1 %21, label %22, label %28

22:                                               ; preds = %19
  %23 = load ptr, ptr %4, align 8, !tbaa !12
  call void @gv_cleanup_edge(ptr noundef %23)
  br label %24

24:                                               ; preds = %22
  %25 = load ptr, ptr %2, align 8, !tbaa !3
  %26 = load ptr, ptr %4, align 8, !tbaa !12
  %27 = call ptr @agnxtout(ptr noundef %25, ptr noundef %26)
  store ptr %27, ptr %4, align 8, !tbaa !12
  br label %19, !llvm.loop !76

28:                                               ; preds = %19
  %29 = load ptr, ptr %3, align 8, !tbaa !8
  call void @dot_cleanup_node(ptr noundef %29)
  br label %30

30:                                               ; preds = %28
  %31 = load ptr, ptr %2, align 8, !tbaa !3
  %32 = load ptr, ptr %3, align 8, !tbaa !8
  %33 = call ptr @agnxtnode(ptr noundef %31, ptr noundef %32)
  store ptr %33, ptr %3, align 8, !tbaa !8
  br label %12, !llvm.loop !77

34:                                               ; preds = %12
  %35 = load ptr, ptr %2, align 8, !tbaa !3
  call void @dot_cleanup_graph(ptr noundef %35)
  call void @llvm.lifetime.end.p0(i64 8, ptr %4) #12
  call void @llvm.lifetime.end.p0(i64 8, ptr %3) #12
  ret void
}