; Function Attrs: nounwind uwtable
define void @dot_cleanup(ptr noundef %0) local_unnamed_addr #0 {
  %2 = getelementptr inbounds nuw i8, ptr %0, i64 16
  %3 = load ptr, ptr %2, align 8, !tbaa !3
  %4 = getelementptr inbounds nuw i8, ptr %3, i64 256
  %5 = load ptr, ptr %4, align 8, !tbaa !72
  %.not9.i = icmp eq ptr %5, null
  br i1 %.not9.i, label %free_virtual_node_list.exit, label %.lr.ph.i

.lr.ph.i:                                         ; preds = %1, %40
  %.010.i = phi ptr [ %9, %40 ], [ %5, %1 ]
  %6 = getelementptr inbounds nuw i8, ptr %.010.i, i64 16
  %7 = load ptr, ptr %6, align 8, !tbaa !3
  %8 = getelementptr inbounds nuw i8, ptr %7, i64 240
  %9 = load ptr, ptr %8, align 8, !tbaa !73
  %10 = getelementptr inbounds nuw i8, ptr %7, i64 264
  %11 = load i64, ptr %10, align 8, !tbaa !32
  %.not17.i.i = icmp eq i64 %11, 0
  br i1 %.not17.i.i, label %._crit_edge.i.i, label %.lr.ph.i.i

._crit_edge.loopexit.i.i:                         ; preds = %.lr.ph.i.i
  %.pre.i.i = load ptr, ptr %6, align 8, !tbaa !3
  br label %._crit_edge.i.i

._crit_edge.i.i:                                  ; preds = %._crit_edge.loopexit.i.i, %.lr.ph.i
  %12 = phi ptr [ %.pre.i.i, %._crit_edge.loopexit.i.i ], [ %7, %.lr.ph.i ]
  %13 = getelementptr inbounds nuw i8, ptr %12, i64 280
  %14 = load i64, ptr %13, align 8, !tbaa !42
  %.not1619.i.i = icmp eq i64 %14, 0
  br i1 %.not1619.i.i, label %free_virtual_edge_list.exit.i, label %.lr.ph22.i.i

.lr.ph.i.i:                                       ; preds = %.lr.ph.i, %.lr.ph.i.i
  %.015.in18.i.i = phi i64 [ %.015.i.i, %.lr.ph.i.i ], [ %11, %.lr.ph.i ]
  %.015.i.i = add i64 %.015.in18.i.i, -1
  %15 = load ptr, ptr %6, align 8, !tbaa !3
  %16 = getelementptr inbounds nuw i8, ptr %15, i64 256
  %17 = load ptr, ptr %16, align 8, !tbaa !41
  %18 = getelementptr inbounds nuw ptr, ptr %17, i64 %.015.i.i
  %19 = load ptr, ptr %18, align 8, !tbaa !74
  tail call void @delete_fast_edge(ptr noundef %19) #15
  %20 = getelementptr inbounds nuw i8, ptr %19, i64 16
  %21 = load ptr, ptr %20, align 8, !tbaa !75
  tail call void @free(ptr noundef %21) #15
  tail call void @free(ptr noundef %19) #15
  %.not.i.i = icmp eq i64 %.015.i.i, 0
  br i1 %.not.i.i, label %._crit_edge.loopexit.i.i, label %.lr.ph.i.i, !llvm.loop !76

.lr.ph22.i.i:                                     ; preds = %._crit_edge.i.i, %.lr.ph22.i.i
  %.0.in20.i.i = phi i64 [ %.0.i.i, %.lr.ph22.i.i ], [ %14, %._crit_edge.i.i ]
  %.0.i.i = add i64 %.0.in20.i.i, -1
  %22 = load ptr, ptr %6, align 8, !tbaa !3
  %23 = getelementptr inbounds nuw i8, ptr %22, i64 272
  %24 = load ptr, ptr %23, align 8, !tbaa !43
  %25 = getelementptr inbounds nuw ptr, ptr %24, i64 %.0.i.i
  %26 = load ptr, ptr %25, align 8, !tbaa !74
  tail call void @delete_fast_edge(ptr noundef %26) #15
  %27 = getelementptr inbounds nuw i8, ptr %26, i64 16
  %28 = load ptr, ptr %27, align 8, !tbaa !75
  tail call void @free(ptr noundef %28) #15
  tail call void @free(ptr noundef %26) #15
  %.not16.i.i = icmp eq i64 %.0.i.i, 0
  br i1 %.not16.i.i, label %free_virtual_edge_list.exit.loopexit.i, label %.lr.ph22.i.i, !llvm.loop !77

free_virtual_edge_list.exit.loopexit.i:           ; preds = %.lr.ph22.i.i
  %.pre.i = load ptr, ptr %6, align 8, !tbaa !3
  br label %free_virtual_edge_list.exit.i

free_virtual_edge_list.exit.i:                    ; preds = %free_virtual_edge_list.exit.loopexit.i, %._crit_edge.i.i
  %29 = phi ptr [ %.pre.i, %free_virtual_edge_list.exit.loopexit.i ], [ %12, %._crit_edge.i.i ]
  %30 = getelementptr inbounds nuw i8, ptr %29, i64 216
  %31 = load i8, ptr %30, align 8, !tbaa !78
  %32 = icmp eq i8 %31, 1
  br i1 %32, label %33, label %40

33:                                               ; preds = %free_virtual_edge_list.exit.i
  %34 = getelementptr inbounds nuw i8, ptr %29, i64 272
  %35 = load ptr, ptr %34, align 8, !tbaa !43
  tail call void @free(ptr noundef %35) #15
  %36 = load ptr, ptr %6, align 8, !tbaa !3
  %37 = getelementptr inbounds nuw i8, ptr %36, i64 256
  %38 = load ptr, ptr %37, align 8, !tbaa !41
  tail call void @free(ptr noundef %38) #15
  %39 = load ptr, ptr %6, align 8, !tbaa !79
  tail call void @free(ptr noundef %39) #15
  tail call void @free(ptr noundef nonnull %.010.i) #15
  br label %40

40:                                               ; preds = %33, %free_virtual_edge_list.exit.i
  %.not.i = icmp eq ptr %9, null
  br i1 %.not.i, label %free_virtual_node_list.exit, label %.lr.ph.i, !llvm.loop !82

free_virtual_node_list.exit:                      ; preds = %40, %1
  %41 = tail call ptr @agfstnode(ptr noundef %0) #15
  %.not17 = icmp eq ptr %41, null
  br i1 %.not17, label %._crit_edge20, label %.lr.ph19

.lr.ph19:                                         ; preds = %free_virtual_node_list.exit, %._crit_edge
  %.01318 = phi ptr [ %44, %._crit_edge ], [ %41, %free_virtual_node_list.exit ]
  %42 = tail call ptr @agfstout(ptr noundef %0, ptr noundef nonnull %.01318) #15
  %.not1415 = icmp eq ptr %42, null
  br i1 %.not1415, label %._crit_edge, label %.lr.ph

.lr.ph:                                           ; preds = %.lr.ph19, %.lr.ph
  %.016 = phi ptr [ %43, %.lr.ph ], [ %42, %.lr.ph19 ]
  tail call void @gv_cleanup_edge(ptr noundef nonnull %.016) #15
  %43 = tail call ptr @agnxtout(ptr noundef %0, ptr noundef nonnull %.016) #15
  %.not14 = icmp eq ptr %43, null
  br i1 %.not14, label %._crit_edge, label %.lr.ph, !llvm.loop !83

._crit_edge:                                      ; preds = %.lr.ph, %.lr.ph19
  tail call fastcc void @dot_cleanup_node(ptr noundef %.01318)
  %44 = tail call ptr @agnxtnode(ptr noundef %0, ptr noundef nonnull %.01318) #15
  %.not = icmp eq ptr %44, null
  br i1 %.not, label %._crit_edge20, label %.lr.ph19, !llvm.loop !84

._crit_edge20:                                    ; preds = %._crit_edge, %free_virtual_node_list.exit
  tail call fastcc void @dot_cleanup_graph(ptr noundef %0)
  ret void
}